; Function Attrs: nounwind uwtable
define internal noundef ptr @arena_i_index(ptr noundef %0, ptr readnone captures(none) %1, i64 %2, i64 noundef %3) #0 {
  %5 = tail call i32 @pthread_mutex_trylock(ptr noundef nonnull getelementptr inbounds nuw (i8, ptr @ctl_mtx, i64 72)) #14
  %.not.i = icmp eq i32 %5, 0
  br i1 %.not.i, label %7, label %6

6:                                                ; preds = %4
  tail call void @duckdb_je_malloc_mutex_lock_slow(ptr noundef nonnull @ctl_mtx) #14
  store atomic i8 1, ptr getelementptr inbounds nuw (i8, ptr @ctl_mtx, i64 64) monotonic, align 8
  br label %7

7:                                                ; preds = %6, %4
  %8 = load i64, ptr getelementptr inbounds nuw (i8, ptr @ctl_mtx, i64 56), align 8, !tbaa !16
  %9 = add i64 %8, 1
  store i64 %9, ptr getelementptr inbounds nuw (i8, ptr @ctl_mtx, i64 56), align 8, !tbaa !16
  %10 = load ptr, ptr getelementptr inbounds nuw (i8, ptr @ctl_mtx, i64 48), align 8, !tbaa !22
  %.not.i.i = icmp eq ptr %10, %0
  br i1 %.not.i.i, label %malloc_mutex_lock.exit, label %11

11:                                               ; preds = %7
  store ptr %0, ptr getelementptr inbounds nuw (i8, ptr @ctl_mtx, i64 48), align 8, !tbaa !22
  %12 = load i64, ptr getelementptr inbounds nuw (i8, ptr @ctl_mtx, i64 40), align 8, !tbaa !23
  %13 = add i64 %12, 1
  store i64 %13, ptr getelementptr inbounds nuw (i8, ptr @ctl_mtx, i64 40), align 8, !tbaa !23
  br label %malloc_mutex_lock.exit

malloc_mutex_lock.exit:                           ; preds = %7, %11
  %14 = and i64 %3, -2
  %switch = icmp eq i64 %14, 4096
  br i1 %switch, label %21, label %15

15:                                               ; preds = %malloc_mutex_lock.exit
  %16 = load ptr, ptr @ctl_arenas, align 8, !tbaa !24
  %17 = getelementptr inbounds nuw i8, ptr %16, i64 8
  %18 = load i32, ptr %17, align 8, !tbaa !39
  %19 = zext i32 %18 to i64
  %20 = icmp ugt i64 %3, %19
  br i1 %20, label %22, label %21

21:                                               ; preds = %malloc_mutex_lock.exit, %15
  br label %22

22:                                               ; preds = %15, %21
  %.0 = phi ptr [ @super_arena_i_node, %21 ], [ null, %15 ]
  store atomic i8 0, ptr getelementptr inbounds nuw (i8, ptr @ctl_mtx, i64 64) monotonic, align 8
  %23 = tail call i32 @pthread_mutex_unlock(ptr noundef nonnull getelementptr inbounds nuw (i8, ptr @ctl_mtx, i64 72)) #14
  ret ptr %.0
}